target datalayout = "e-m:e-p270:32:32-p271:32:32-p272:64:64-i64:64-i128:128-f80:128-n8:16:32:64-S128"
target triple = "x86_64-pc-linux-gnu"

%struct.DdManager = type { %struct.DdNode, ptr, ptr, ptr, ptr, ptr, ptr, ptr, i32, i32, double, double, double, i32, i32, i32, i32, i32, i32, ptr, ptr, %struct.DdSubtable, i32, i32, i32, i32, i32, i32, i32, double, i32, i32, i32, ptr, i64, double, i32, ptr, ptr, ptr, ptr, ptr, ptr, ptr, i32, ptr, ptr, ptr, ptr, ptr, ptr, i32, i32, i32, double, i32, i32, i32, i32, double, double, i32, i32, i32, i32, i32, i32, i32, i32, i32, ptr, ptr, i32, i32, i32, i32, i32, i32, ptr, ptr, ptr, ptr, ptr, ptr, ptr, ptr, i32, i64, i64, i64, i32, i64, i64, double, double, double, double, double, double, i32, ptr, ptr, i64 }
%struct.DdNode = type { i32, i32, ptr, %union.anon, i64 }
%union.anon = type { %struct.DdChildren }
%struct.DdChildren = type { ptr, ptr }
%struct.DdSubtable = type { ptr, i32, i32, i32, i32, i32, i32, i32, i32, i32, i32, i32 }

; Function Attrs: nounwind uwtable
define internal ptr @zdd_subset0_aux(ptr noundef %0, ptr noundef %1, ptr noundef %2) #0 {
  %4 = alloca ptr, align 8
  %5 = alloca ptr, align 8
  %6 = alloca ptr, align 8
  %7 = alloca ptr, align 8
  %8 = alloca i32, align 4
  %9 = alloca i32, align 4
  %10 = alloca ptr, align 8
  %11 = alloca ptr, align 8
  %12 = alloca ptr, align 8
  %13 = alloca i32, align 4
  store ptr %0, ptr %5, align 8, !tbaa !3
  store ptr %1, ptr %6, align 8, !tbaa !8
  store ptr %2, ptr %7, align 8, !tbaa !8
  call void @llvm.lifetime.start.p0(i64 4, ptr %8) #3
  call void @llvm.lifetime.start.p0(i64 4, ptr %9) #3
  call void @llvm.lifetime.start.p0(i64 8, ptr %10) #3
  call void @llvm.lifetime.start.p0(i64 8, ptr %11) #3
  call void @llvm.lifetime.start.p0(i64 8, ptr %12) #3
  %14 = load ptr, ptr %5, align 8, !tbaa !3
  %15 = load ptr, ptr %6, align 8, !tbaa !8
  %16 = load ptr, ptr %7, align 8, !tbaa !8
  %17 = call ptr @cuddCacheLookup2Zdd(ptr noundef %14, ptr noundef @zdd_subset0_aux, ptr noundef %15, ptr noundef %16)
  store ptr %17, ptr %10, align 8, !tbaa !8
  %18 = load ptr, ptr %10, align 8, !tbaa !8
  %19 = icmp ne ptr %18, null
  br i1 %19, label %20, label %22

20:                                               ; preds = %3
  %21 = load ptr, ptr %10, align 8, !tbaa !8
  store ptr %21, ptr %4, align 8
  store i32 1, ptr %13, align 4
  br label %142

22:                                               ; preds = %3
  %23 = load ptr, ptr %6, align 8, !tbaa !8
  %24 = getelementptr inbounds nuw %struct.DdNode, ptr %23, i32 0, i32 0
  %25 = load i32, ptr %24, align 8, !tbaa !30
  %26 = icmp eq i32 %25, 2147483647
  br i1 %26, label %27, label %34

27:                                               ; preds = %22
  %28 = load ptr, ptr %6, align 8, !tbaa !8
  store ptr %28, ptr %10, align 8, !tbaa !8
  %29 = load ptr, ptr %5, align 8, !tbaa !3
  %30 = load ptr, ptr %6, align 8, !tbaa !8
  %31 = load ptr, ptr %7, align 8, !tbaa !8
  %32 = load ptr, ptr %10, align 8, !tbaa !8
  call void @cuddCacheInsert2(ptr noundef %29, ptr noundef @zdd_subset0_aux, ptr noundef %30, ptr noundef %31, ptr noundef %32)
  %33 = load ptr, ptr %10, align 8, !tbaa !8
  store ptr %33, ptr %4, align 8
  store i32 1, ptr %13, align 4
  br label %142

34:                                               ; preds = %22
  %35 = load ptr, ptr %5, align 8, !tbaa !3
  %36 = getelementptr inbounds nuw %struct.DdManager, ptr %35, i32 0, i32 38
  %37 = load ptr, ptr %36, align 8, !tbaa !31
  %38 = load ptr, ptr %6, align 8, !tbaa !8
  %39 = getelementptr inbounds nuw %struct.DdNode, ptr %38, i32 0, i32 0
  %40 = load i32, ptr %39, align 8, !tbaa !30
  %41 = zext i32 %40 to i64
  %42 = getelementptr inbounds nuw i32, ptr %37, i64 %41
  %43 = load i32, ptr %42, align 4, !tbaa !32
  store i32 %43, ptr %8, align 4, !tbaa !32
  %44 = load ptr, ptr %5, align 8, !tbaa !3
  %45 = getelementptr inbounds nuw %struct.DdManager, ptr %44, i32 0, i32 38
  %46 = load ptr, ptr %45, align 8, !tbaa !31
  %47 = load ptr, ptr %7, align 8, !tbaa !8
  %48 = getelementptr inbounds nuw %struct.DdNode, ptr %47, i32 0, i32 0
  %49 = load i32, ptr %48, align 8, !tbaa !30
  %50 = zext i32 %49 to i64
  %51 = getelementptr inbounds nuw i32, ptr %46, i64 %50
  %52 = load i32, ptr %51, align 4, !tbaa !32
  store i32 %52, ptr %9, align 4, !tbaa !32
  %53 = load i32, ptr %8, align 4, !tbaa !32
  %54 = load i32, ptr %9, align 4, !tbaa !32
  %55 = icmp sgt i32 %53, %54
  br i1 %55, label %56, label %58

56:                                               ; preds = %34
  %57 = load ptr, ptr %6, align 8, !tbaa !8
  store ptr %57, ptr %10, align 8, !tbaa !8
  br label %136

58:                                               ; preds = %34
  %59 = load i32, ptr %8, align 4, !tbaa !32
  %60 = load i32, ptr %9, align 4, !tbaa !32
  %61 = icmp eq i32 %59, %60
  br i1 %61, label %62, label %67

62:                                               ; preds = %58
  %63 = load ptr, ptr %6, align 8, !tbaa !8
  %64 = getelementptr inbounds nuw %struct.DdNode, ptr %63, i32 0, i32 3
  %65 = getelementptr inbounds nuw %struct.DdChildren, ptr %64, i32 0, i32 1
  %66 = load ptr, ptr %65, align 8, !tbaa !35
  store ptr %66, ptr %10, align 8, !tbaa !8
  br label %135

67:                                               ; preds = %58
  %68 = load ptr, ptr %5, align 8, !tbaa !3
  %69 = load ptr, ptr %6, align 8, !tbaa !8
  %70 = getelementptr inbounds nuw %struct.DdNode, ptr %69, i32 0, i32 3
  %71 = getelementptr inbounds nuw %struct.DdChildren, ptr %70, i32 0, i32 0
  %72 = load ptr, ptr %71, align 8, !tbaa !35
  %73 = load ptr, ptr %7, align 8, !tbaa !8
  %74 = call ptr @zdd_subset0_aux(ptr noundef %68, ptr noundef %72, ptr noundef %73)
  store ptr %74, ptr %11, align 8, !tbaa !8
  %75 = load ptr, ptr %11, align 8, !tbaa !8
  %76 = icmp eq ptr %75, null
  br i1 %76, label %77, label %78

77:                                               ; preds = %67
  store ptr null, ptr %4, align 8
  store i32 1, ptr %13, align 4
  br label %142

78:                                               ; preds = %67
  %79 = load ptr, ptr %11, align 8, !tbaa !8
  %80 = ptrtoint ptr %79 to i64
  %81 = and i64 %80, -2
  %82 = inttoptr i64 %81 to ptr
  %83 = getelementptr inbounds nuw %struct.DdNode, ptr %82, i32 0, i32 1
  %84 = load i32, ptr %83, align 4, !tbaa !36
  %85 = add i32 %84, 1
  store i32 %85, ptr %83, align 4, !tbaa !36
  %86 = load ptr, ptr %5, align 8, !tbaa !3
  %87 = load ptr, ptr %6, align 8, !tbaa !8
  %88 = getelementptr inbounds nuw %struct.DdNode, ptr %87, i32 0, i32 3
  %89 = getelementptr inbounds nuw %struct.DdChildren, ptr %88, i32 0, i32 1
  %90 = load ptr, ptr %89, align 8, !tbaa !35
  %91 = load ptr, ptr %7, align 8, !tbaa !8
  %92 = call ptr @zdd_subset0_aux(ptr noundef %86, ptr noundef %90, ptr noundef %91)
  store ptr %92, ptr %12, align 8, !tbaa !8
  %93 = load ptr, ptr %12, align 8, !tbaa !8
  %94 = icmp eq ptr %93, null
  br i1 %94, label %95, label %98

95:                                               ; preds = %78
  %96 = load ptr, ptr %5, align 8, !tbaa !3
  %97 = load ptr, ptr %11, align 8, !tbaa !8
  call void @Cudd_RecursiveDerefZdd(ptr noundef %96, ptr noundef %97)
  store ptr null, ptr %4, align 8
  store i32 1, ptr %13, align 4
  br label %142

98:                                               ; preds = %78
  %99 = load ptr, ptr %12, align 8, !tbaa !8
  %100 = ptrtoint ptr %99 to i64
  %101 = and i64 %100, -2
  %102 = inttoptr i64 %101 to ptr
  %103 = getelementptr inbounds nuw %struct.DdNode, ptr %102, i32 0, i32 1
  %104 = load i32, ptr %103, align 4, !tbaa !36
  %105 = add i32 %104, 1
  store i32 %105, ptr %103, align 4, !tbaa !36
  %106 = load ptr, ptr %5, align 8, !tbaa !3
  %107 = load ptr, ptr %6, align 8, !tbaa !8
  %108 = getelementptr inbounds nuw %struct.DdNode, ptr %107, i32 0, i32 0
  %109 = load i32, ptr %108, align 8, !tbaa !30
  %110 = load ptr, ptr %11, align 8, !tbaa !8
  %111 = load ptr, ptr %12, align 8, !tbaa !8
  %112 = call ptr @cuddZddGetNode(ptr noundef %106, i32 noundef %109, ptr noundef %110, ptr noundef %111)
  store ptr %112, ptr %10, align 8, !tbaa !8
  %113 = load ptr, ptr %10, align 8, !tbaa !8
  %114 = icmp eq ptr %113, null
  br i1 %114, label %115, label %120

115:                                              ; preds = %98
  %116 = load ptr, ptr %5, align 8, !tbaa !3
  %117 = load ptr, ptr %11, align 8, !tbaa !8
  call void @Cudd_RecursiveDerefZdd(ptr noundef %116, ptr noundef %117)
  %118 = load ptr, ptr %5, align 8, !tbaa !3
  %119 = load ptr, ptr %12, align 8, !tbaa !8
  call void @Cudd_RecursiveDerefZdd(ptr noundef %118, ptr noundef %119)
  store ptr null, ptr %4, align 8
  store i32 1, ptr %13, align 4
  br label %142

120:                                              ; preds = %98
  %121 = load ptr, ptr %11, align 8, !tbaa !8
  %122 = ptrtoint ptr %121 to i64
  %123 = and i64 %122, -2
  %124 = inttoptr i64 %123 to ptr
  %125 = getelementptr inbounds nuw %struct.DdNode, ptr %124, i32 0, i32 1
  %126 = load i32, ptr %125, align 4, !tbaa !36
  %127 = add i32 %126, -1
  store i32 %127, ptr %125, align 4, !tbaa !36
  %128 = load ptr, ptr %12, align 8, !tbaa !8
  %129 = ptrtoint ptr %128 to i64
  %130 = and i64 %129, -2
  %131 = inttoptr i64 %130 to ptr
  %132 = getelementptr inbounds nuw %struct.DdNode, ptr %131, i32 0, i32 1
  %133 = load i32, ptr %132, align 4, !tbaa !36
  %134 = add i32 %133, -1
  store i32 %134, ptr %132, align 4, !tbaa !36
  br label %135

135:                                              ; preds = %120, %62
  br label %136

136:                                              ; preds = %135, %56
  %137 = load ptr, ptr %5, align 8, !tbaa !3
  %138 = load ptr, ptr %6, align 8, !tbaa !8
  %139 = load ptr, ptr %7, align 8, !tbaa !8
  %140 = load ptr, ptr %10, align 8, !tbaa !8
  call void @cuddCacheInsert2(ptr noundef %137, ptr noundef @zdd_subset0_aux, ptr noundef %138, ptr noundef %139, ptr noundef %140)
  %141 = load ptr, ptr %10, align 8, !tbaa !8
  store ptr %141, ptr %4, align 8
  store i32 1, ptr %13, align 4
  br label %142

142:                                              ; preds = %136, %115, %95, %77, %27, %20
  call void @llvm.lifetime.end.p0(i64 8, ptr %12) #3
  call void @llvm.lifetime.end.p0(i64 8, ptr %11) #3
  call void @llvm.lifetime.end.p0(i64 8, ptr %10) #3
  call void @llvm.lifetime.end.p0(i64 4, ptr %9) #3
  call void @llvm.lifetime.end.p0(i64 4, ptr %8) #3
  %143 = load ptr, ptr %4, align 8
  ret ptr %143
}