; Function Attrs: nounwind uwtable
define internal ptr @zdd_subset0_aux(ptr noundef %0, ptr noundef %1, ptr noundef %2) #0 {
  %4 = tail call ptr @cuddCacheLookup2Zdd(ptr noundef %0, ptr noundef nonnull @zdd_subset0_aux, ptr noundef %1, ptr noundef %2) #3
  %.not = icmp eq ptr %4, null
  br i1 %.not, label %5, label %59

5:                                                ; preds = %3
  %6 = load i32, ptr %1, align 8, !tbaa !27
  %7 = icmp eq i32 %6, 2147483647
  br i1 %7, label %8, label %9

8:                                                ; preds = %5
  tail call void @cuddCacheInsert2(ptr noundef %0, ptr noundef nonnull @zdd_subset0_aux, ptr noundef nonnull %1, ptr noundef %2, ptr noundef nonnull %1) #3
  br label %59

9:                                                ; preds = %5
  %10 = getelementptr inbounds nuw i8, ptr %0, i64 320
  %11 = load ptr, ptr %10, align 8, !tbaa !28
  %12 = zext i32 %6 to i64
  %13 = getelementptr inbounds nuw i32, ptr %11, i64 %12
  %14 = load i32, ptr %13, align 4, !tbaa !29
  %15 = load i32, ptr %2, align 8, !tbaa !27
  %16 = zext i32 %15 to i64
  %17 = getelementptr inbounds nuw i32, ptr %11, i64 %16
  %18 = load i32, ptr %17, align 4, !tbaa !29
  %19 = icmp sgt i32 %14, %18
  br i1 %19, label %58, label %20

20:                                               ; preds = %9
  %21 = icmp eq i32 %14, %18
  br i1 %21, label %22, label %25

22:                                               ; preds = %20
  %23 = getelementptr inbounds nuw i8, ptr %1, i64 24
  %24 = load ptr, ptr %23, align 8, !tbaa !32
  br label %58

25:                                               ; preds = %20
  %26 = getelementptr inbounds nuw i8, ptr %1, i64 16
  %27 = load ptr, ptr %26, align 8, !tbaa !32
  %28 = tail call ptr @zdd_subset0_aux(ptr noundef nonnull %0, ptr noundef %27, ptr noundef nonnull %2)
  %29 = icmp eq ptr %28, null
  br i1 %29, label %59, label %30

30:                                               ; preds = %25
  %31 = ptrtoint ptr %28 to i64
  %32 = and i64 %31, -2
  %33 = inttoptr i64 %32 to ptr
  %34 = getelementptr inbounds nuw i8, ptr %33, i64 4
  %35 = load i32, ptr %34, align 4, !tbaa !33
  %36 = add i32 %35, 1
  store i32 %36, ptr %34, align 4, !tbaa !33
  %37 = getelementptr inbounds nuw i8, ptr %1, i64 24
  %38 = load ptr, ptr %37, align 8, !tbaa !32
  %39 = tail call ptr @zdd_subset0_aux(ptr noundef nonnull %0, ptr noundef %38, ptr noundef nonnull %2)
  %40 = icmp eq ptr %39, null
  br i1 %40, label %41, label %42

41:                                               ; preds = %30
  tail call void @Cudd_RecursiveDerefZdd(ptr noundef nonnull %0, ptr noundef nonnull %28) #3
  br label %59

42:                                               ; preds = %30
  %43 = ptrtoint ptr %39 to i64
  %44 = and i64 %43, -2
  %45 = inttoptr i64 %44 to ptr
  %46 = getelementptr inbounds nuw i8, ptr %45, i64 4
  %47 = load i32, ptr %46, align 4, !tbaa !33
  %48 = add i32 %47, 1
  store i32 %48, ptr %46, align 4, !tbaa !33
  %49 = load i32, ptr %1, align 8, !tbaa !27
  %50 = tail call ptr @cuddZddGetNode(ptr noundef nonnull %0, i32 noundef %49, ptr noundef nonnull %28, ptr noundef nonnull %39) #3
  %51 = icmp eq ptr %50, null
  br i1 %51, label %52, label %53

52:                                               ; preds = %42
  tail call void @Cudd_RecursiveDerefZdd(ptr noundef nonnull %0, ptr noundef nonnull %28) #3
  tail call void @Cudd_RecursiveDerefZdd(ptr noundef nonnull %0, ptr noundef nonnull %39) #3
  br label %59

53:                                               ; preds = %42
  %54 = load i32, ptr %34, align 4, !tbaa !33
  %55 = add i32 %54, -1
  store i32 %55, ptr %34, align 4, !tbaa !33
  %56 = load i32, ptr %46, align 4, !tbaa !33
  %57 = add i32 %56, -1
  store i32 %57, ptr %46, align 4, !tbaa !33
  br label %58

58:                                               ; preds = %9, %22, %53
  %.050 = phi ptr [ %24, %22 ], [ %50, %53 ], [ %1, %9 ]
  tail call void @cuddCacheInsert2(ptr noundef nonnull %0, ptr noundef nonnull @zdd_subset0_aux, ptr noundef nonnull %1, ptr noundef nonnull %2, ptr noundef %.050) #3
  br label %59

59:                                               ; preds = %25, %3, %58, %52, %41, %8
  %.0 = phi ptr [ %1, %8 ], [ %.050, %58 ], [ null, %41 ], [ null, %52 ], [ %4, %3 ], [ null, %25 ]
  ret ptr %.0
}